target datalayout = "e-m:e-p270:32:32-p271:32:32-p272:64:64-i64:64-i128:128-f80:128-n8:16:32:64-S128"
target triple = "x86_64-pc-linux-gnu"

%struct.expert_field = type { i32, i32 }
%struct._xmpp_attr_t = type { ptr, ptr, i32, i32, i8 }
%struct._xmpp_element_t = type { ptr, ptr, ptr, ptr, ptr, ptr, i32, i32, i8 }
%struct._GList = type { ptr, ptr, ptr }
%struct.except_stacknode = type { ptr, i32, %union.anon }
%union.anon = type { ptr }
%struct.except_cleanup = type { ptr, ptr }

@.str.4 = private unnamed_addr constant [6 x i8] c"xmlns\00", align 1
@.str.18 = private unnamed_addr constant [7 x i8] c"%s: %s\00", align 1
@.str.20 = private unnamed_addr constant [3 x i8] c" [\00", align 1
@.str.21 = private unnamed_addr constant [2 x i8] c" \00", align 1
@.str.22 = private unnamed_addr constant [8 x i8] c"%s=\22%s\22\00", align 1
@.str.24 = private unnamed_addr constant [2 x i8] c"]\00", align 1
@.str.29 = private unnamed_addr constant [7 x i8] c"xmlns:\00", align 1
@hf_xmpp_xmlns = external global i32, align 4
@hf_xmpp_unknown_attr = external global i32, align 4
@.str.30 = private unnamed_addr constant [16 x i8] c" [UNKNOWN ATTR]\00", align 1
@ei_xmpp_unknown_attribute = external global %struct.expert_field, align 4
@.str.31 = private unnamed_addr constant [21 x i8] c"Unknown attribute %s\00", align 1

; Function Attrs: null_pointer_is_valid sspstrong uwtable
define internal void @xmpp_unknown_attrs(ptr noundef %0, ptr noundef %1, ptr noundef %2, ptr noundef %3, i1 noundef zeroext %4) #0 {
  %6 = alloca ptr, align 8
  %7 = alloca ptr, align 8
  %8 = alloca ptr, align 8
  %9 = alloca ptr, align 8
  %10 = alloca i8, align 1
  %11 = alloca ptr, align 8
  %12 = alloca ptr, align 8
  %13 = alloca ptr, align 8
  %14 = alloca ptr, align 8
  %15 = alloca ptr, align 8
  %16 = alloca %struct.except_stacknode, align 8
  %17 = alloca %struct.except_cleanup, align 8
  %18 = alloca %struct.except_stacknode, align 8
  %19 = alloca %struct.except_cleanup, align 8
  %20 = alloca i8, align 1
  %21 = alloca ptr, align 8
  %22 = alloca ptr, align 8
  %23 = alloca ptr, align 8
  store ptr %0, ptr %6, align 8
  store ptr %1, ptr %7, align 8
  store ptr %2, ptr %8, align 8
  store ptr %3, ptr %9, align 8
  %24 = zext i1 %4 to i8
  store i8 %24, ptr %10, align 1
  call void @llvm.lifetime.start.p0(i64 8, ptr %11) #8
  %25 = load ptr, ptr %6, align 8
  %26 = call ptr @proto_tree_get_parent(ptr noundef %25)
  store ptr %26, ptr %11, align 8
  call void @llvm.lifetime.start.p0(i64 8, ptr %12) #8
  %27 = load ptr, ptr %9, align 8
  %28 = getelementptr inbounds nuw %struct._xmpp_element_t, ptr %27, i32 0, i32 3
  %29 = load ptr, ptr %28, align 8
  %30 = call ptr @g_hash_table_get_keys(ptr noundef %29)
  store ptr %30, ptr %12, align 8
  call void @llvm.lifetime.start.p0(i64 8, ptr %13) #8
  %31 = load ptr, ptr %9, align 8
  %32 = getelementptr inbounds nuw %struct._xmpp_element_t, ptr %31, i32 0, i32 3
  %33 = load ptr, ptr %32, align 8
  %34 = call ptr @g_hash_table_get_values(ptr noundef %33)
  store ptr %34, ptr %13, align 8
  call void @llvm.lifetime.start.p0(i64 8, ptr %14) #8
  %35 = load ptr, ptr %12, align 8
  store ptr %35, ptr %14, align 8
  call void @llvm.lifetime.start.p0(i64 8, ptr %15) #8
  %36 = load ptr, ptr %13, align 8
  store ptr %36, ptr %15, align 8
  call void @llvm.lifetime.start.p0(i64 24, ptr %16) #8
  call void @llvm.lifetime.start.p0(i64 16, ptr %17) #8
  %37 = load ptr, ptr %14, align 8
  call void @except_setup_clean(ptr noundef %16, ptr noundef %17, ptr noundef @cleanup_glist_cb, ptr noundef %37)
  call void @llvm.lifetime.start.p0(i64 24, ptr %18) #8
  call void @llvm.lifetime.start.p0(i64 16, ptr %19) #8
  %38 = load ptr, ptr %15, align 8
  call void @except_setup_clean(ptr noundef %18, ptr noundef %19, ptr noundef @cleanup_glist_cb, ptr noundef %38)
  call void @llvm.lifetime.start.p0(i64 1, ptr %20) #8
  store i8 0, ptr %20, align 1
  br label %39

39:                                               ; preds = %155, %5
  %40 = load ptr, ptr %12, align 8
  %41 = icmp ne ptr %40, null
  br i1 %41, label %42, label %45

42:                                               ; preds = %39
  %43 = load ptr, ptr %13, align 8
  %44 = icmp ne ptr %43, null
  br label %45

45:                                               ; preds = %42, %39
  %46 = phi i1 [ false, %39 ], [ %44, %42 ]
  br i1 %46, label %47, label %162

47:                                               ; preds = %45
  call void @llvm.lifetime.start.p0(i64 8, ptr %21) #8
  %48 = load ptr, ptr %13, align 8
  %49 = getelementptr inbounds nuw %struct._GList, ptr %48, i32 0, i32 0
  %50 = load ptr, ptr %49, align 8
  store ptr %50, ptr %21, align 8
  %51 = load ptr, ptr %21, align 8
  %52 = getelementptr inbounds nuw %struct._xmpp_attr_t, ptr %51, i32 0, i32 4
  %53 = load i8, ptr %52, align 8, !range !6, !noundef !7
  %54 = trunc i8 %53 to i1
  br i1 %54, label %155, label %55

55:                                               ; preds = %47
  %56 = load i8, ptr %10, align 1, !range !6, !noundef !7
  %57 = trunc i8 %56 to i1
  br i1 %57, label %58, label %73

58:                                               ; preds = %55
  %59 = load i8, ptr %20, align 1, !range !6, !noundef !7
  %60 = trunc i8 %59 to i1
  br i1 %60, label %63, label %61

61:                                               ; preds = %58
  %62 = load ptr, ptr %11, align 8
  call void (ptr, ptr, ...) @proto_item_append_text(ptr noundef %62, ptr noundef @.str.20)
  br label %65

63:                                               ; preds = %58
  %64 = load ptr, ptr %11, align 8
  call void (ptr, ptr, ...) @proto_item_append_text(ptr noundef %64, ptr noundef @.str.21)
  br label %65

65:                                               ; preds = %63, %61
  %66 = load ptr, ptr %11, align 8
  %67 = load ptr, ptr %12, align 8
  %68 = getelementptr inbounds nuw %struct._GList, ptr %67, i32 0, i32 0
  %69 = load ptr, ptr %68, align 8
  %70 = load ptr, ptr %21, align 8
  %71 = getelementptr inbounds nuw %struct._xmpp_attr_t, ptr %70, i32 0, i32 0
  %72 = load ptr, ptr %71, align 8
  call void (ptr, ptr, ...) @proto_item_append_text(ptr noundef %66, ptr noundef @.str.22, ptr noundef %69, ptr noundef %72)
  store i8 1, ptr %20, align 1
  br label %73

73:                                               ; preds = %65, %55
  %74 = load ptr, ptr %12, align 8
  %75 = getelementptr inbounds nuw %struct._GList, ptr %74, i32 0, i32 0
  %76 = load ptr, ptr %75, align 8
  %77 = call i32 @strcmp(ptr noundef %76, ptr noundef @.str.4) #10
  %78 = icmp eq i32 %77, 0
  br i1 %78, label %79, label %93

79:                                               ; preds = %73
  %80 = load ptr, ptr %6, align 8
  %81 = load i32, ptr @hf_xmpp_xmlns, align 4
  %82 = load ptr, ptr %7, align 8
  %83 = load ptr, ptr %21, align 8
  %84 = getelementptr inbounds nuw %struct._xmpp_attr_t, ptr %83, i32 0, i32 2
  %85 = load i32, ptr %84, align 8
  %86 = load ptr, ptr %21, align 8
  %87 = getelementptr inbounds nuw %struct._xmpp_attr_t, ptr %86, i32 0, i32 3
  %88 = load i32, ptr %87, align 4
  %89 = load ptr, ptr %21, align 8
  %90 = getelementptr inbounds nuw %struct._xmpp_attr_t, ptr %89, i32 0, i32 0
  %91 = load ptr, ptr %90, align 8
  %92 = call ptr @proto_tree_add_string(ptr noundef %80, i32 noundef %81, ptr noundef %82, i32 noundef %85, i32 noundef %88, ptr noundef %91)
  br label %154

93:                                               ; preds = %73
  call void @llvm.lifetime.start.p0(i64 8, ptr %22) #8
  %94 = load ptr, ptr %12, align 8
  %95 = getelementptr inbounds nuw %struct._GList, ptr %94, i32 0, i32 0
  %96 = load ptr, ptr %95, align 8
  %97 = call ptr @ws_ascii_strcasestr(ptr noundef %96, ptr noundef @.str.29)
  store ptr %97, ptr %22, align 8
  %98 = load ptr, ptr %22, align 8
  %99 = icmp ne ptr %98, null
  br i1 %99, label %100, label %126

100:                                              ; preds = %93
  %101 = load ptr, ptr %22, align 8
  %102 = load ptr, ptr %12, align 8
  %103 = getelementptr inbounds nuw %struct._GList, ptr %102, i32 0, i32 0
  %104 = load ptr, ptr %103, align 8
  %105 = icmp eq ptr %101, %104
  br i1 %105, label %106, label %126

106:                                              ; preds = %100
  %107 = load ptr, ptr %6, align 8
  %108 = load i32, ptr @hf_xmpp_xmlns, align 4
  %109 = load ptr, ptr %7, align 8
  %110 = load ptr, ptr %21, align 8
  %111 = getelementptr inbounds nuw %struct._xmpp_attr_t, ptr %110, i32 0, i32 2
  %112 = load i32, ptr %111, align 8
  %113 = load ptr, ptr %21, align 8
  %114 = getelementptr inbounds nuw %struct._xmpp_attr_t, ptr %113, i32 0, i32 3
  %115 = load i32, ptr %114, align 4
  %116 = load ptr, ptr %21, align 8
  %117 = getelementptr inbounds nuw %struct._xmpp_attr_t, ptr %116, i32 0, i32 0
  %118 = load ptr, ptr %117, align 8
  %119 = load ptr, ptr %12, align 8
  %120 = getelementptr inbounds nuw %struct._GList, ptr %119, i32 0, i32 0
  %121 = load ptr, ptr %120, align 8
  %122 = load ptr, ptr %21, align 8
  %123 = getelementptr inbounds nuw %struct._xmpp_attr_t, ptr %122, i32 0, i32 0
  %124 = load ptr, ptr %123, align 8
  %125 = call ptr (ptr, i32, ptr, i32, i32, ptr, ptr, ...) @proto_tree_add_string_format(ptr noundef %107, i32 noundef %108, ptr noundef %109, i32 noundef %112, i32 noundef %115, ptr noundef %118, ptr noundef @.str.18, ptr noundef %121, ptr noundef %124)
  br label %153

126:                                              ; preds = %100, %93
  call void @llvm.lifetime.start.p0(i64 8, ptr %23) #8
  %127 = load ptr, ptr %6, align 8
  %128 = load i32, ptr @hf_xmpp_unknown_attr, align 4
  %129 = load ptr, ptr %7, align 8
  %130 = load ptr, ptr %21, align 8
  %131 = getelementptr inbounds nuw %struct._xmpp_attr_t, ptr %130, i32 0, i32 2
  %132 = load i32, ptr %131, align 8
  %133 = load ptr, ptr %21, align 8
  %134 = getelementptr inbounds nuw %struct._xmpp_attr_t, ptr %133, i32 0, i32 3
  %135 = load i32, ptr %134, align 4
  %136 = load ptr, ptr %21, align 8
  %137 = getelementptr inbounds nuw %struct._xmpp_attr_t, ptr %136, i32 0, i32 1
  %138 = load ptr, ptr %137, align 8
  %139 = load ptr, ptr %21, align 8
  %140 = getelementptr inbounds nuw %struct._xmpp_attr_t, ptr %139, i32 0, i32 1
  %141 = load ptr, ptr %140, align 8
  %142 = load ptr, ptr %21, align 8
  %143 = getelementptr inbounds nuw %struct._xmpp_attr_t, ptr %142, i32 0, i32 0
  %144 = load ptr, ptr %143, align 8
  %145 = call ptr (ptr, i32, ptr, i32, i32, ptr, ptr, ...) @proto_tree_add_string_format(ptr noundef %127, i32 noundef %128, ptr noundef %129, i32 noundef %132, i32 noundef %135, ptr noundef %138, ptr noundef @.str.18, ptr noundef %141, ptr noundef %144)
  store ptr %145, ptr %23, align 8
  %146 = load ptr, ptr %23, align 8
  call void (ptr, ptr, ...) @proto_item_append_text(ptr noundef %146, ptr noundef @.str.30)
  %147 = load ptr, ptr %8, align 8
  %148 = load ptr, ptr %23, align 8
  %149 = load ptr, ptr %21, align 8
  %150 = getelementptr inbounds nuw %struct._xmpp_attr_t, ptr %149, i32 0, i32 1
  %151 = load ptr, ptr %150, align 8
  %152 = call ptr (ptr, ptr, ptr, ptr, ...) @expert_add_info_format(ptr noundef %147, ptr noundef %148, ptr noundef @ei_xmpp_unknown_attribute, ptr noundef @.str.31, ptr noundef %151)
  call void @llvm.lifetime.end.p0(i64 8, ptr %23) #8
  br label %153

153:                                              ; preds = %126, %106
  call void @llvm.lifetime.end.p0(i64 8, ptr %22) #8
  br label %154

154:                                              ; preds = %153, %79
  br label %155

155:                                              ; preds = %154, %47
  %156 = load ptr, ptr %12, align 8
  %157 = getelementptr inbounds nuw %struct._GList, ptr %156, i32 0, i32 1
  %158 = load ptr, ptr %157, align 8
  store ptr %158, ptr %12, align 8
  %159 = load ptr, ptr %13, align 8
  %160 = getelementptr inbounds nuw %struct._GList, ptr %159, i32 0, i32 1
  %161 = load ptr, ptr %160, align 8
  store ptr %161, ptr %13, align 8
  call void @llvm.lifetime.end.p0(i64 8, ptr %21) #8
  br label %39, !llvm.loop !18

162:                                              ; preds = %45
  %163 = load i8, ptr %20, align 1, !range !6, !noundef !7
  %164 = trunc i8 %163 to i1
  br i1 %164, label %165, label %170

165:                                              ; preds = %162
  %166 = load i8, ptr %10, align 1, !range !6, !noundef !7
  %167 = trunc i8 %166 to i1
  br i1 %167, label %168, label %170

168:                                              ; preds = %165
  %169 = load ptr, ptr %11, align 8
  call void (ptr, ptr, ...) @proto_item_append_text(ptr noundef %169, ptr noundef @.str.24)
  br label %170

170:                                              ; preds = %168, %165, %162
  %171 = call ptr @except_pop()
  %172 = getelementptr inbounds nuw %struct.except_cleanup, ptr %19, i32 0, i32 0
  %173 = load ptr, ptr %172, align 8
  %174 = getelementptr inbounds nuw %struct.except_cleanup, ptr %19, i32 0, i32 1
  %175 = load ptr, ptr %174, align 8
  call void %173(ptr noundef %175)
  call void @llvm.lifetime.end.p0(i64 1, ptr %20) #8
  call void @llvm.lifetime.end.p0(i64 16, ptr %19) #8
  call void @llvm.lifetime.end.p0(i64 24, ptr %18) #8
  %176 = call ptr @except_pop()
  %177 = getelementptr inbounds nuw %struct.except_cleanup, ptr %17, i32 0, i32 0
  %178 = load ptr, ptr %177, align 8
  %179 = getelementptr inbounds nuw %struct.except_cleanup, ptr %17, i32 0, i32 1
  %180 = load ptr, ptr %179, align 8
  call void %178(ptr noundef %180)
  call void @llvm.lifetime.end.p0(i64 16, ptr %17) #8
  call void @llvm.lifetime.end.p0(i64 24, ptr %16) #8
  call void @llvm.lifetime.end.p0(i64 8, ptr %15) #8
  call void @llvm.lifetime.end.p0(i64 8, ptr %14) #8
  call void @llvm.lifetime.end.p0(i64 8, ptr %13) #8
  call void @llvm.lifetime.end.p0(i64 8, ptr %12) #8
  call void @llvm.lifetime.end.p0(i64 8, ptr %11) #8
  ret void
}