; Function Attrs: null_pointer_is_valid sspstrong uwtable
define internal fastcc void @xmpp_unknown_attrs(ptr noundef %0, ptr noundef %1, ptr noundef %2, ptr noundef readonly captures(none) %3, i1 noundef zeroext %4) unnamed_addr #0 {
  %6 = alloca %struct.except_stacknode, align 8
  %7 = alloca %struct.except_cleanup, align 8
  %8 = alloca %struct.except_stacknode, align 8
  %9 = alloca %struct.except_cleanup, align 8
  %10 = tail call ptr @proto_tree_get_parent(ptr noundef %0)
  %11 = getelementptr inbounds nuw i8, ptr %3, i64 24
  %12 = load ptr, ptr %11, align 8
  %13 = tail call ptr @g_hash_table_get_keys(ptr noundef %12)
  %14 = load ptr, ptr %11, align 8
  %15 = tail call ptr @g_hash_table_get_values(ptr noundef %14)
  call void @llvm.lifetime.start.p0(i64 24, ptr nonnull %6) #13
  call void @llvm.lifetime.start.p0(i64 16, ptr nonnull %7) #13
  call void @except_setup_clean(ptr noundef nonnull %6, ptr noundef nonnull %7, ptr noundef nonnull @cleanup_glist_cb, ptr noundef %13)
  call void @llvm.lifetime.start.p0(i64 24, ptr nonnull %8) #13
  call void @llvm.lifetime.start.p0(i64 16, ptr nonnull %9) #13
  call void @except_setup_clean(ptr noundef nonnull %8, ptr noundef nonnull %9, ptr noundef nonnull @cleanup_glist_cb, ptr noundef %15)
  %16 = icmp ne ptr %13, null
  %17 = icmp ne ptr %15, null
  %18 = select i1 %16, i1 %17, i1 false
  br i1 %18, label %.lr.ph, label %._crit_edge.thread

.lr.ph:                                           ; preds = %5, %65
  %.058 = phi ptr [ %67, %65 ], [ %13, %5 ]
  %.05057 = phi ptr [ %69, %65 ], [ %15, %5 ]
  %.05156 = phi i8 [ %.1, %65 ], [ 0, %5 ]
  %19 = load ptr, ptr %.05057, align 8
  %20 = getelementptr inbounds nuw i8, ptr %19, i64 24
  %21 = load i8, ptr %20, align 8, !range !6, !noundef !7
  %22 = trunc nuw i8 %21 to i1
  br i1 %22, label %65, label %23

23:                                               ; preds = %.lr.ph
  br i1 %4, label %24, label %28

24:                                               ; preds = %23
  %25 = trunc nuw i8 %.05156 to i1
  %.str.21..str.20 = select i1 %25, ptr @.str.21, ptr @.str.20
  call void (ptr, ptr, ...) @proto_item_append_text(ptr noundef %10, ptr noundef nonnull %.str.21..str.20)
  %26 = load ptr, ptr %.058, align 8
  %27 = load ptr, ptr %19, align 8
  call void (ptr, ptr, ...) @proto_item_append_text(ptr noundef %10, ptr noundef nonnull @.str.22, ptr noundef %26, ptr noundef %27)
  br label %28

28:                                               ; preds = %24, %23
  %.2 = phi i8 [ 1, %24 ], [ %.05156, %23 ]
  %29 = load ptr, ptr %.058, align 8
  %30 = call i32 @strcmp(ptr noundef %29, ptr noundef nonnull dereferenceable(6) @.str.4) #11
  %31 = icmp eq i32 %30, 0
  br i1 %31, label %32, label %40

32:                                               ; preds = %28
  %33 = load i32, ptr @hf_xmpp_xmlns, align 4
  %34 = getelementptr inbounds nuw i8, ptr %19, i64 16
  %35 = load i32, ptr %34, align 8
  %36 = getelementptr inbounds nuw i8, ptr %19, i64 20
  %37 = load i32, ptr %36, align 4
  %38 = load ptr, ptr %19, align 8
  %39 = call ptr @proto_tree_add_string(ptr noundef %0, i32 noundef %33, ptr noundef %1, i32 noundef %35, i32 noundef %37, ptr noundef %38)
  br label %65

40:                                               ; preds = %28
  %41 = call ptr @ws_ascii_strcasestr(ptr noundef %29, ptr noundef nonnull @.str.29)
  %.not = icmp eq ptr %41, null
  br i1 %.not, label %53, label %42

42:                                               ; preds = %40
  %43 = load ptr, ptr %.058, align 8
  %44 = icmp eq ptr %41, %43
  br i1 %44, label %45, label %53

45:                                               ; preds = %42
  %46 = load i32, ptr @hf_xmpp_xmlns, align 4
  %47 = getelementptr inbounds nuw i8, ptr %19, i64 16
  %48 = load i32, ptr %47, align 8
  %49 = getelementptr inbounds nuw i8, ptr %19, i64 20
  %50 = load i32, ptr %49, align 4
  %51 = load ptr, ptr %19, align 8
  %52 = call ptr (ptr, i32, ptr, i32, i32, ptr, ptr, ...) @proto_tree_add_string_format(ptr noundef %0, i32 noundef %46, ptr noundef %1, i32 noundef %48, i32 noundef %50, ptr noundef %51, ptr noundef nonnull @.str.18, ptr noundef %43, ptr noundef %51)
  br label %65

53:                                               ; preds = %42, %40
  %54 = load i32, ptr @hf_xmpp_unknown_attr, align 4
  %55 = getelementptr inbounds nuw i8, ptr %19, i64 16
  %56 = load i32, ptr %55, align 8
  %57 = getelementptr inbounds nuw i8, ptr %19, i64 20
  %58 = load i32, ptr %57, align 4
  %59 = getelementptr inbounds nuw i8, ptr %19, i64 8
  %60 = load ptr, ptr %59, align 8
  %61 = load ptr, ptr %19, align 8
  %62 = call ptr (ptr, i32, ptr, i32, i32, ptr, ptr, ...) @proto_tree_add_string_format(ptr noundef %0, i32 noundef %54, ptr noundef %1, i32 noundef %56, i32 noundef %58, ptr noundef %60, ptr noundef nonnull @.str.18, ptr noundef %60, ptr noundef %61)
  call void (ptr, ptr, ...) @proto_item_append_text(ptr noundef %62, ptr noundef nonnull @.str.30)
  %63 = load ptr, ptr %59, align 8
  %64 = call ptr (ptr, ptr, ptr, ptr, ...) @expert_add_info_format(ptr noundef %2, ptr noundef %62, ptr noundef nonnull @ei_xmpp_unknown_attribute, ptr noundef nonnull @.str.31, ptr noundef %63)
  br label %65

65:                                               ; preds = %45, %53, %32, %.lr.ph
  %.1 = phi i8 [ %.05156, %.lr.ph ], [ %.2, %32 ], [ %.2, %53 ], [ %.2, %45 ]
  %66 = getelementptr inbounds nuw i8, ptr %.058, i64 8
  %67 = load ptr, ptr %66, align 8
  %68 = getelementptr inbounds nuw i8, ptr %.05057, i64 8
  %69 = load ptr, ptr %68, align 8
  %70 = icmp ne ptr %67, null
  %71 = icmp ne ptr %69, null
  %72 = select i1 %70, i1 %71, i1 false
  br i1 %72, label %.lr.ph, label %._crit_edge, !llvm.loop !16

._crit_edge:                                      ; preds = %65
  %73 = trunc nuw i8 %.1 to i1
  %brmerge.demorgan = and i1 %4, %73
  br i1 %brmerge.demorgan, label %74, label %._crit_edge.thread

74:                                               ; preds = %._crit_edge
  call void (ptr, ptr, ...) @proto_item_append_text(ptr noundef %10, ptr noundef nonnull @.str.24)
  br label %._crit_edge.thread

._crit_edge.thread:                               ; preds = %5, %._crit_edge, %74
  %75 = call ptr @except_pop()
  %76 = load ptr, ptr %9, align 8
  %77 = getelementptr inbounds nuw i8, ptr %9, i64 8
  %78 = load ptr, ptr %77, align 8
  call void %76(ptr noundef %78)
  call void @llvm.lifetime.end.p0(i64 16, ptr nonnull %9) #13
  call void @llvm.lifetime.end.p0(i64 24, ptr nonnull %8) #13
  %79 = call ptr @except_pop()
  %80 = load ptr, ptr %7, align 8
  %81 = getelementptr inbounds nuw i8, ptr %7, i64 8
  %82 = load ptr, ptr %81, align 8
  call void %80(ptr noundef %82)
  call void @llvm.lifetime.end.p0(i64 16, ptr nonnull %7) #13
  call void @llvm.lifetime.end.p0(i64 24, ptr nonnull %6) #13
  ret void
}